(dp0
S'METTS MARK'
p1
(dp2
S'to_messages'
p3
F807.0
sS'deferral_payments'
p4
F0.0
sS'expenses'
p5
F94299.0
sS'poi'
p6
I00
sS'long_term_incentive'
p7
F0.0
sS'from_poi_to_this_person'
p8
F38.0
sS'deferred_income'
p9
F0.0
sS'restricted_stock_deferred'
p10
F0.0
sS'shared_receipt_with_poi'
p11
F702.0
sS'loan_advances'
p12
F0.0
sS'from_messages'
p13
F29.0
sS'other'
p14
F1740.0
sS'to_poi_ratio'
p15
F0.04708798017348203
sS'director_fees'
p16
F0.0
sS'bonus'
p17
F600000.0
sS'total_stock_value'
p18
F585062.0
sS'from_this_person_to_poi'
p19
F1.0
sS'from_poi_ratio'
p20
F0.034482758620689655
sS'restricted_stock'
p21
F585062.0
sS'salary'
p22
F365788.0
sS'bonus_to_total'
p23
F0.5650638004119315
sS'total_payments'
p24
F1061827.0
sS'shared_poi_ratio'
p25
F0.8698884758364313
sS'exercised_stock_options'
p26
F0.0
sS'bonus_to_salary'
p27
F1.6402943781644013
ssS'BAXTER JOHN C'
p28
(dp29
g3
F0.0
sg4
F1295738.0
sg5
F11200.0
sg6
I00
sg7
F1586055.0
sg8
F0.0
sg9
F-1386055.0
sg10
F0.0
sg11
F0.0
sg12
F0.0
sg13
F0.0
sg14
F2660303.0
sg15
F0.0
sg16
F0.0
sg17
F1200000.0
sg18
F10623258.0
sg19
F0.0
sg20
F0.0
sg21
F3942714.0
sg22
F267102.0
sg23
F0.21297957898551792
sg24
F5634343.0
sg25
F0.0
sg26
F6680544.0
sg27
F4.492665723206865
ssS'CORDES WILLIAM R'
p30
(dp31
g3
F764.0
sg4
F0.0
sg5
F0.0
sg6
I00
sg7
F0.0
sg8
F10.0
sg9
F0.0
sg10
F0.0
sg11
F58.0
sg12
F0.0
sg13
F12.0
sg14
F0.0
sg15
F0.013089005235602094
sg16
F0.0
sg17
F0.0
sg18
F1038185.0
sg19
F0.0
sg20
F0.0
sg21
F386335.0
sg22
F0.0
sg23
F0.0
sg24
F0.0
sg25
F0.07591623036649214
sg26
F651850.0
sg27
F0.0
ssS'HANNON KEVIN P'
p32
(dp33
g3
F1045.0
sg4
F0.0
sg5
F34039.0
sg6
I01
sg7
F1617011.0
sg8
F32.0
sg9
F-3117011.0
sg10
F0.0
sg11
F1035.0
sg12
F0.0
sg13
F32.0
sg14
F11350.0
sg15
F0.03062200956937799
sg16
F0.0
sg17
F1500000.0
sg18
F6391065.0
sg19
F21.0
sg20
F0.65625
sg21
F853064.0
sg22
F243293.0
sg23
F5.196028848352166
sg24
F288682.0
sg25
F0.9904306220095693
sg26
F5538001.0
sg27
F6.165405498719651
ssS'MORDAUNT KRISTINA M'
p34
(dp35
g3
F0.0
sg4
F0.0
sg5
F35018.0
sg6
I00
sg7
F0.0
sg8
F0.0
sg9
F0.0
sg10
F0.0
sg11
F0.0
sg12
F0.0
sg13
F0.0
sg14
F1411.0
sg15
F0.0
sg16
F0.0
sg17
F325000.0
sg18
F208510.0
sg19
F0.0
sg20
F0.0
sg21
F208510.0
sg22
F267093.0
sg23
F0.5170861163173286
sg24
F628522.0
sg25
F0.0
sg26
F0.0
sg27
F1.2168046335920448
ssS'MEYER ROCKFORD G'
p36
(dp37
g3
F232.0
sg4
F1848227.0
sg5
F0.0
sg6
I00
sg7
F0.0
sg8
F0.0
sg9
F0.0
sg10
F0.0
sg11
F22.0
sg12
F0.0
sg13
F28.0
sg14
F0.0
sg15
F0.0
sg16
F0.0
sg17
F0.0
sg18
F955873.0
sg19
F0.0
sg20
F0.0
sg21
F462384.0
sg22
F0.0
sg23
F0.0
sg24
F1848227.0
sg25
F0.09482758620689655
sg26
F493489.0
sg27
F0.0
ssS'MCMAHON JEFFREY'
p38
(dp39
g3
F2355.0
sg4
F0.0
sg5
F137108.0
sg6
I00
sg7
F694862.0
sg8
F58.0
sg9
F0.0
sg10
F0.0
sg11
F2228.0
sg12
F0.0
sg13
F48.0
sg14
F297353.0
sg15
F0.024628450106157114
sg16
F0.0
sg17
F2600000.0
sg18
F1662855.0
sg19
F26.0
sg20
F0.5416666666666666
sg21
F558801.0
sg22
F370448.0
sg23
F0.6341817628350461
sg24
F4099771.0
sg25
F0.9460721868365181
sg26
F1104054.0
sg27
F7.018528916339135
ssS'HORTON STANLEY C'
p40
(dp41
g3
F2350.0
sg4
F3131860.0
sg5
F0.0
sg6
I00
sg7
F0.0
sg8
F44.0
sg9
F0.0
sg10
F0.0
sg11
F1074.0
sg12
F0.0
sg13
F1073.0
sg14
F0.0
sg15
F0.01872340425531915
sg16
F0.0
sg17
F0.0
sg18
F7256648.0
sg19
F15.0
sg20
F0.013979496738117428
sg21
F2046079.0
sg22
F0.0
sg23
F0.0
sg24
F3131860.0
sg25
F0.4570212765957447
sg26
F5210569.0
sg27
F0.0
ssS'PIPER GREGORY F'
p42
(dp43
g3
F1238.0
sg4
F1130036.0
sg5
F43057.0
sg6
I00
sg7
F0.0
sg8
F61.0
sg9
F-33333.0
sg10
F-409554.0
sg11
F742.0
sg12
F0.0
sg13
F222.0
sg14
F778.0
sg15
F0.049273021001615507
sg16
F0.0
sg17
F400000.0
sg18
F880290.0
sg19
F48.0
sg20
F0.21621621621621623
sg21
F409554.0
sg22
F197091.0
sg23
F0.23019873632403695
sg24
F1737629.0
sg25
F0.5993537964458805
sg26
F880290.0
sg27
F2.0295193590777862
ssS'HUMPHREY GENE E'
p44
(dp45
g3
F128.0
sg4
F2964506.0
sg5
F4994.0
sg6
I00
sg7
F0.0
sg8
F10.0
sg9
F0.0
sg10
F0.0
sg11
F119.0
sg12
F0.0
sg13
F17.0
sg14
F0.0
sg15
F0.078125
sg16
F0.0
sg17
F0.0
sg18
F2282768.0
sg19
F17.0
sg20
F1.0
sg21
F0.0
sg22
F130724.0
sg23
F0.0
sg24
F3100224.0
sg25
F0.9296875
sg26
F2282768.0
sg27
F0.0
ssS'UMANOFF ADAM S'
p46
(dp47
g3
F111.0
sg4
F0.0
sg5
F53122.0
sg6
I00
sg7
F0.0
sg8
F12.0
sg9
F0.0
sg10
F0.0
sg11
F41.0
sg12
F0.0
sg13
F18.0
sg14
F0.0
sg15
F0.10810810810810811
sg16
F0.0
sg17
F788750.0
sg18
F0.0
sg19
F0.0
sg20
F0.0
sg21
F0.0
sg22
F288589.0
sg23
F0.6977242027809893
sg24
F1130461.0
sg25
F0.36936936936936937
sg26
F0.0
sg27
F2.7331256562100426
ssS'BLACHMAN JEREMY M'
p48
(dp49
g3
F2475.0
sg4
F0.0
sg5
F84208.0
sg6
I00
sg7
F831809.0
sg8
F25.0
sg9
F0.0
sg10
F0.0
sg11
F2326.0
sg12
F0.0
sg13
F14.0
sg14
F272.0
sg15
F0.010101010101010102
sg16
F0.0
sg17
F850000.0
sg18
F954354.0
sg19
F2.0
sg20
F0.14285714285714285
sg21
F189041.0
sg22
F248546.0
sg23
F0.4218707735372872
sg24
F2014835.0
sg25
F0.9397979797979797
sg26
F765313.0
sg27
F3.419890080709406
ssS'SUNDE MARTIN'
p50
(dp51
g3
F2647.0
sg4
F0.0
sg5
F0.0
sg6
I00
sg7
F476451.0
sg8
F37.0
sg9
F0.0
sg10
F0.0
sg11
F2565.0
sg12
F0.0
sg13
F38.0
sg14
F111122.0
sg15
F0.013978088401964487
sg16
F0.0
sg17
F700000.0
sg18
F698920.0
sg19
F13.0
sg20
F0.34210526315789475
sg21
F698920.0
sg22
F257486.0
sg23
F0.4530571324460749
sg24
F1545059.0
sg25
F0.9690215338118625
sg26
F0.0
sg27
F2.7185944090164127
ssS'GIBBS DANA R'
p52
(dp53
g3
F169.0
sg4
F504610.0
sg5
F0.0
sg6
I00
sg7
F461912.0
sg8
F0.0
sg9
F0.0
sg10
F0.0
sg11
F23.0
sg12
F0.0
sg13
F12.0
sg14
F0.0
sg15
F0.0
sg16
F0.0
sg17
F0.0
sg18
F2218275.0
sg19
F0.0
sg20
F0.0
sg21
F0.0
sg22
F0.0
sg23
F0.0
sg24
F966522.0
sg25
F0.13609467455621302
sg26
F2218275.0
sg27
F0.0
ssS'LOWRY CHARLES P'
p54
(dp55
g3
F0.0
sg4
F0.0
sg5
F0.0
sg6
I00
sg7
F0.0
sg8
F0.0
sg9
F0.0
sg10
F-153686.0
sg11
F0.0
sg12
F0.0
sg13
F0.0
sg14
F0.0
sg15
F0.0
sg16
F0.0
sg17
F0.0
sg18
F372205.0
sg19
F0.0
sg20
F0.0
sg21
F153686.0
sg22
F0.0
sg23
F0.0
sg24
F0.0
sg25
F0.0
sg26
F372205.0
sg27
F0.0
ssS'COLWELL WESLEY'
p56
(dp57
g3
F1758.0
sg4
F27610.0
sg5
F16514.0
sg6
I01
sg7
F0.0
sg8
F240.0
sg9
F-144062.0
sg10
F0.0
sg11
F1132.0
sg12
F0.0
sg13
F40.0
sg14
F101740.0
sg15
F0.13651877133105803
sg16
F0.0
sg17
F1200000.0
sg18
F698242.0
sg19
F11.0
sg20
F0.275
sg21
F698242.0
sg22
F288542.0
sg23
F0.8051832328643588
sg24
F1490344.0
sg25
F0.6439135381114903
sg26
F0.0
sg27
F4.158839960906905
ssS'MULLER MARK S'
p58
(dp59
g3
F136.0
sg4
F842924.0
sg5
F0.0
sg6
I00
sg7
F1725545.0
sg8
F12.0
sg9
F-719000.0
sg10
F0.0
sg11
F114.0
sg12
F0.0
sg13
F16.0
sg14
F947.0
sg15
F0.08823529411764706
sg16
F0.0
sg17
F1100000.0
sg18
F1416848.0
sg19
F0.0
sg20
F0.0
sg21
F360528.0
sg22
F251654.0
sg23
F0.3435277804670104
sg24
F3202070.0
sg25
F0.8382352941176471
sg26
F1056320.0
sg27
F4.3710809285765375
ssS'JACKSON CHARLENE R'
p60
(dp61
g3
F258.0
sg4
F0.0
sg5
F10181.0
sg6
I00
sg7
F0.0
sg8
F25.0
sg9
F0.0
sg10
F0.0
sg11
F117.0
sg12
F0.0
sg13
F56.0
sg14
F2435.0
sg15
F0.09689922480620156
sg16
F0.0
sg17
F250000.0
sg18
F725735.0
sg19
F19.0
sg20
F0.3392857142857143
sg21
F540672.0
sg22
F288558.0
sg23
F0.453577273238578
sg24
F551174.0
sg25
F0.45348837209302323
sg26
F185063.0
sg27
F0.8663769502145149
ssS'WESTFAHL RICHARD K'
p62
(dp63
g3
F0.0
sg4
F0.0
sg5
F51870.0
sg6
I00
sg7
F256191.0
sg8
F0.0
sg9
F-10800.0
sg10
F0.0
sg11
F0.0
sg12
F0.0
sg13
F0.0
sg14
F401130.0
sg15
F0.0
sg16
F0.0
sg17
F0.0
sg18
F384930.0
sg19
F0.0
sg20
F0.0
sg21
F384930.0
sg22
F63744.0
sg23
F0.0
sg24
F762135.0
sg25
F0.0
sg26
F0.0
sg27
F0.0
ssS'WALTERS GARETH W'
p64
(dp65
g3
F0.0
sg4
F53625.0
sg5
F33785.0
sg6
I00
sg7
F0.0
sg8
F0.0
sg9
F0.0
sg10
F0.0
sg11
F0.0
sg12
F0.0
sg13
F0.0
sg14
F0.0
sg15
F0.0
sg16
F0.0
sg17
F0.0
sg18
F1030329.0
sg19
F0.0
sg20
F0.0
sg21
F0.0
sg22
F0.0
sg23
F0.0
sg24
F87410.0
sg25
F0.0
sg26
F1030329.0
sg27
F0.0
ssS'WALLS JR ROBERT H'
p66
(dp67
g3
F671.0
sg4
F0.0
sg5
F50936.0
sg6
I00
sg7
F540751.0
sg8
F17.0
sg9
F0.0
sg10
F0.0
sg11
F215.0
sg12
F0.0
sg13
F146.0
sg14
F2.0
sg15
F0.02533532041728763
sg16
F0.0
sg17
F850000.0
sg18
F5898997.0
sg19
F0.0
sg20
F0.0
sg21
F1552453.0
sg22
F357091.0
sg23
F0.47254250102847484
sg24
F1798780.0
sg25
F0.3204172876304024
sg26
F4346544.0
sg27
F2.380345626184922
ssS'KITCHEN LOUISE'
p68
(dp69
g3
F8305.0
sg4
F0.0
sg5
F5774.0
sg6
I00
sg7
F0.0
sg8
F251.0
sg9
F0.0
sg10
F0.0
sg11
F3669.0
sg12
F0.0
sg13
F1728.0
sg14
F93925.0
sg15
F0.030222757375075255
sg16
F0.0
sg17
F3100000.0
sg18
F547143.0
sg19
F194.0
sg20
F0.11226851851851852
sg21
F466101.0
sg22
F271442.0
sg23
F0.8930780973748977
sg24
F3471141.0
sg25
F0.441782059000602
sg26
F81042.0
sg27
F11.420487617981005
ssS'CHAN RONNIE'
p70
(dp71
g3
F0.0
sg4
F0.0
sg5
F0.0
sg6
I00
sg7
F0.0
sg8
F0.0
sg9
F-98784.0
sg10
F-32460.0
sg11
F0.0
sg12
F0.0
sg13
F0.0
sg14
F0.0
sg15
F0.0
sg16
F98784.0
sg17
F0.0
sg18
F0.0
sg19
F0.0
sg20
F0.0
sg21
F32460.0
sg22
F0.0
sg23
F0.0
sg24
F0.0
sg25
F0.0
sg26
F0.0
sg27
F0.0
ssS'BELFER ROBERT'
p72
(dp73
g3
F0.0
sg4
F-102500.0
sg5
F0.0
sg6
I00
sg7
F0.0
sg8
F0.0
sg9
F0.0
sg10
F44093.0
sg11
F0.0
sg12
F0.0
sg13
F0.0
sg14
F0.0
sg15
F0.0
sg16
F3285.0
sg17
F0.0
sg18
F-44093.0
sg19
F0.0
sg20
F0.0
sg21
F0.0
sg22
F0.0
sg23
F0.0
sg24
F102500.0
sg25
F0.0
sg26
F3285.0
sg27
F0.0
ssS'SHANKMAN JEFFREY A'
p74
(dp75
g3
F3221.0
sg4
F0.0
sg5
F178979.0
sg6
I00
sg7
F554422.0
sg8
F94.0
sg9
F0.0
sg10
F0.0
sg11
F1730.0
sg12
F0.0
sg13
F2681.0
sg14
F1191.0
sg15
F0.029183483390251473
sg16
F0.0
sg17
F2000000.0
sg18
F2072035.0
sg19
F83.0
sg20
F0.030958597538232
sg21
F630137.0
sg22
F304110.0
sg23
F0.6581757605714545
sg24
F3038702.0
sg25
F0.5371002794163303
sg26
F1441898.0
sg27
F6.576567689322943
ssS'WODRASKA JOHN'
p76
(dp77
g3
F0.0
sg4
F0.0
sg5
F0.0
sg6
I00
sg7
F0.0
sg8
F0.0
sg9
F0.0
sg10
F0.0
sg11
F0.0
sg12
F0.0
sg13
F0.0
sg14
F189583.0
sg15
F0.0
sg16
F0.0
sg17
F0.0
sg18
F0.0
sg19
F0.0
sg20
F0.0
sg21
F0.0
sg22
F0.0
sg23
F0.0
sg24
F189583.0
sg25
F0.0
sg26
F0.0
sg27
F0.0
ssS'BERGSIEKER RICHARD P'
p78
(dp79
g3
F383.0
sg4
F0.0
sg5
F59175.0
sg6
I00
sg7
F180250.0
sg8
F4.0
sg9
F-485813.0
sg10
F0.0
sg11
F233.0
sg12
F0.0
sg13
F59.0
sg14
F427316.0
sg15
F0.010443864229765013
sg16
F0.0
sg17
F250000.0
sg18
F659249.0
sg19
F0.0
sg20
F0.0
sg21
F659249.0
sg22
F187922.0
sg23
F0.4039751151329078
sg24
F618850.0
sg25
F0.608355091383812
sg26
F0.0
sg27
F1.3303391832781686
ssS'URQUHART JOHN A'
p80
(dp81
g3
F0.0
sg4
F0.0
sg5
F228656.0
sg6
I00
sg7
F0.0
sg8
F0.0
sg9
F-36666.0
sg10
F0.0
sg11
F0.0
sg12
F0.0
sg13
F0.0
sg14
F0.0
sg15
F0.0
sg16
F36666.0
sg17
F0.0
sg18
F0.0
sg19
F0.0
sg20
F0.0
sg21
F0.0
sg22
F0.0
sg23
F0.0
sg24
F228656.0
sg25
F0.0
sg26
F0.0
sg27
F0.0
ssS'BIBI PHILIPPE A'
p82
(dp83
g3
F1607.0
sg4
F0.0
sg5
F38559.0
sg6
I00
sg7
F369721.0
sg8
F23.0
sg9
F0.0
sg10
F0.0
sg11
F1336.0
sg12
F0.0
sg13
F40.0
sg14
F425688.0
sg15
F0.01431238332296204
sg16
F0.0
sg17
F1000000.0
sg18
F1843816.0
sg19
F8.0
sg20
F0.2
sg21
F378082.0
sg22
F213625.0
sg23
F0.4883783056496091
sg24
F2047593.0
sg25
F0.8313627878033603
sg26
F1465734.0
sg27
F4.681100058513751
ssS'PIRO JIM'
p84
(dp85
g3
F58.0
sg4
F0.0
sg5
F0.0
sg6
I00
sg7
F0.0
sg8
F0.0
sg9
F0.0
sg10
F0.0
sg11
F3.0
sg12
F0.0
sg13
F16.0
sg14
F0.0
sg15
F0.0
sg16
F0.0
sg17
F0.0
sg18
F47304.0
sg19
F1.0
sg20
F0.0625
sg21
F47304.0
sg22
F0.0
sg23
F0.0
sg24
F0.0
sg25
F0.05172413793103448
sg26
F0.0
sg27
F0.0
ssS'RIEKER PAULA H'
p86
(dp87
g3
F1328.0
sg4
F214678.0
sg5
F33271.0
sg6
I01
sg7
F0.0
sg8
F35.0
sg9
F-100000.0
sg10
F0.0
sg11
F1258.0
sg12
F0.0
sg13
F82.0
sg14
F1950.0
sg15
F0.02635542168674699
sg16
F0.0
sg17
F700000.0
sg18
F1918887.0
sg19
F48.0
sg20
F0.5853658536585366
sg21
F283649.0
sg22
F249201.0
sg23
F0.6368847238649804
sg24
F1099100.0
sg25
F0.947289156626506
sg26
F1635238.0
sg27
F2.8089774920646384
ssS'WHALEY DAVID A'
p88
(dp89
g3
F0.0
sg4
F0.0
sg5
F0.0
sg6
I00
sg7
F0.0
sg8
F0.0
sg9
F0.0
sg10
F0.0
sg11
F0.0
sg12
F0.0
sg13
F0.0
sg14
F0.0
sg15
F0.0
sg16
F0.0
sg17
F0.0
sg18
F98718.0
sg19
F0.0
sg20
F0.0
sg21
F0.0
sg22
F0.0
sg23
F0.0
sg24
F0.0
sg25
F0.0
sg26
F98718.0
sg27
F0.0
ssS'BECK SALLY W'
p90
(dp91
g3
F7315.0
sg4
F0.0
sg5
F37172.0
sg6
I00
sg7
F0.0
sg8
F144.0
sg9
F0.0
sg10
F0.0
sg11
F2639.0
sg12
F0.0
sg13
F4343.0
sg14
F566.0
sg15
F0.01968557758031442
sg16
F0.0
sg17
F700000.0
sg18
F126027.0
sg19
F386.0
sg20
F0.08887865530739121
sg21
F126027.0
sg22
F231330.0
sg23
F0.7223435300721931
sg24
F969068.0
sg25
F0.36076555023923446
sg26
F0.0
sg27
F3.025980201443825
ssS'HAUG DAVID L'
p92
(dp93
g3
F573.0
sg4
F0.0
sg5
F475.0
sg6
I00
sg7
F0.0
sg8
F4.0
sg9
F0.0
sg10
F0.0
sg11
F471.0
sg12
F0.0
sg13
F19.0
sg14
F0.0
sg15
F0.006980802792321117
sg16
F0.0
sg17
F0.0
sg18
F2217299.0
sg19
F7.0
sg20
F0.3684210526315789
sg21
F2217299.0
sg22
F0.0
sg23
F0.0
sg24
F475.0
sg25
F0.8219895287958116
sg26
F0.0
sg27
F0.0
ssS'ECHOLS JOHN B'
p94
(dp95
g3
F0.0
sg4
F0.0
sg5
F21530.0
sg6
I00
sg7
F2234774.0
sg8
F0.0
sg9
F0.0
sg10
F0.0
sg11
F0.0
sg12
F0.0
sg13
F0.0
sg14
F53775.0
sg15
F0.0
sg16
F0.0
sg17
F200000.0
sg18
F1008941.0
sg19
F0.0
sg20
F0.0
sg21
F407503.0
sg22
F182245.0
sg23
F0.07428526432925606
sg24
F2692324.0
sg25
F0.0
sg26
F601438.0
sg27
F1.0974237976350518
ssS'MENDELSOHN JOHN'
p96
(dp97
g3
F0.0
sg4
F0.0
sg5
F148.0
sg6
I00
sg7
F0.0
sg8
F0.0
sg9
F-103750.0
sg10
F0.0
sg11
F0.0
sg12
F0.0
sg13
F0.0
sg14
F0.0
sg15
F0.0
sg16
F103750.0
sg17
F0.0
sg18
F0.0
sg19
F0.0
sg20
F0.0
sg21
F0.0
sg22
F0.0
sg23
F0.0
sg24
F148.0
sg25
F0.0
sg26
F0.0
sg27
F0.0
ssS'HICKERSON GARY J'
p98
(dp99
g3
F1320.0
sg4
F0.0
sg5
F98849.0
sg6
I00
sg7
F69223.0
sg8
F40.0
sg9
F0.0
sg10
F0.0
sg11
F900.0
sg12
F0.0
sg13
F27.0
sg14
F1936.0
sg15
F0.030303030303030304
sg16
F0.0
sg17
F1700000.0
sg18
F441096.0
sg19
F1.0
sg20
F0.037037037037037035
sg21
F441096.0
sg22
F211788.0
sg23
F0.8166025873812804
sg24
F2081796.0
sg25
F0.6818181818181818
sg26
F0.0
sg27
F8.02689481934765
ssS'CLINE KENNETH W'
p100
(dp101
g3
F0.0
sg4
F0.0
sg5
F0.0
sg6
I00
sg7
F0.0
sg8
F0.0
sg9
F0.0
sg10
F-472568.0
sg11
F0.0
sg12
F0.0
sg13
F0.0
sg14
F0.0
sg15
F0.0
sg16
F0.0
sg17
F0.0
sg18
F189518.0
sg19
F0.0
sg20
F0.0
sg21
F662086.0
sg22
F0.0
sg23
F0.0
sg24
F0.0
sg25
F0.0
sg26
F0.0
sg27
F0.0
ssS'LEWIS RICHARD'
p102
(dp103
g3
F952.0
sg4
F0.0
sg5
F0.0
sg6
I00
sg7
F0.0
sg8
F10.0
sg9
F0.0
sg10
F0.0
sg11
F739.0
sg12
F0.0
sg13
F26.0
sg14
F0.0
sg15
F0.01050420168067227
sg16
F0.0
sg17
F0.0
sg18
F850477.0
sg19
F0.0
sg20
F0.0
sg21
F0.0
sg22
F0.0
sg23
F0.0
sg24
F0.0
sg25
F0.7762605042016807
sg26
F850477.0
sg27
F0.0
ssS'HAYES ROBERT E'
p104
(dp105
g3
F504.0
sg4
F7961.0
sg5
F0.0
sg6
I00
sg7
F0.0
sg8
F16.0
sg9
F0.0
sg10
F0.0
sg11
F50.0
sg12
F0.0
sg13
F12.0
sg14
F0.0
sg15
F0.031746031746031744
sg16
F0.0
sg17
F0.0
sg18
F151418.0
sg19
F0.0
sg20
F0.0
sg21
F151418.0
sg22
F0.0
sg23
F0.0
sg24
F7961.0
sg25
F0.0992063492063492
sg26
F0.0
sg27
F0.0
ssS'KOPPER MICHAEL J'
p106
(dp107
g3
F0.0
sg4
F0.0
sg5
F118134.0
sg6
I01
sg7
F602671.0
sg8
F0.0
sg9
F0.0
sg10
F0.0
sg11
F0.0
sg12
F0.0
sg13
F0.0
sg14
F907502.0
sg15
F0.0
sg16
F0.0
sg17
F800000.0
sg18
F985032.0
sg19
F0.0
sg20
F0.0
sg21
F985032.0
sg22
F224305.0
sg23
F0.30158952760524343
sg24
F2652612.0
sg25
F0.0
sg26
F0.0
sg27
F3.5665723011078665
ssS'LEFF DANIEL P'
p108
(dp109
g3
F2822.0
sg4
F0.0
sg5
F0.0
sg6
I00
sg7
F1387399.0
sg8
F67.0
sg9
F0.0
sg10
F0.0
sg11
F2672.0
sg12
F0.0
sg13
F63.0
sg14
F3083.0
sg15
F0.02374202693125443
sg16
F0.0
sg17
F1000000.0
sg18
F360528.0
sg19
F14.0
sg20
F0.2222222222222222
sg21
F360528.0
sg22
F273746.0
sg23
F0.3753432514034084
sg24
F2664228.0
sg25
F0.9468462083628633
sg26
F0.0
sg27
F3.653021414011529
ssS'LAVORATO JOHN J'
p110
(dp111
g3
F7259.0
sg4
F0.0
sg5
F49537.0
sg6
I00
sg7
F2035380.0
sg8
F528.0
sg9
F0.0
sg10
F0.0
sg11
F3962.0
sg12
F0.0
sg13
F2585.0
sg14
F1552.0
sg15
F0.07273729163796666
sg16
F0.0
sg17
F8000000.0
sg18
F5167144.0
sg19
F411.0
sg20
F0.15899419729206962
sg21
F1008149.0
sg22
F339288.0
sg23
F0.767330372269371
sg24
F10425757.0
sg25
F0.5458052073288332
sg26
F4158995.0
sg27
F23.57878852184575
ssS'BERBERIAN DAVID'
p112
(dp113
g3
F0.0
sg4
F0.0
sg5
F11892.0
sg6
I00
sg7
F0.0
sg8
F0.0
sg9
F0.0
sg10
F0.0
sg11
F0.0
sg12
F0.0
sg13
F0.0
sg14
F0.0
sg15
F0.0
sg16
F0.0
sg17
F0.0
sg18
F2493616.0
sg19
F0.0
sg20
F0.0
sg21
F869220.0
sg22
F216582.0
sg23
F0.0
sg24
F228474.0
sg25
F0.0
sg26
F1624396.0
sg27
F0.0
ssS'DETMERING TIMOTHY J'
p114
(dp115
g3
F0.0
sg4
F875307.0
sg5
F52255.0
sg6
I00
sg7
F415657.0
sg8
F0.0
sg9
F-775241.0
sg10
F-315068.0
sg11
F0.0
sg12
F0.0
sg13
F0.0
sg14
F1105.0
sg15
F0.0
sg16
F0.0
sg17
F425000.0
sg18
F2027865.0
sg19
F0.0
sg20
F0.0
sg21
F315068.0
sg22
F210500.0
sg23
F0.3528191913716199
sg24
F1204583.0
sg25
F0.0
sg26
F2027865.0
sg27
F2.019002375296912
ssS'WAKEHAM JOHN'
p116
(dp117
g3
F0.0
sg4
F0.0
sg5
F103773.0
sg6
I00
sg7
F0.0
sg8
F0.0
sg9
F0.0
sg10
F0.0
sg11
F0.0
sg12
F0.0
sg13
F0.0
sg14
F0.0
sg15
F0.0
sg16
F109298.0
sg17
F0.0
sg18
F0.0
sg19
F0.0
sg20
F0.0
sg21
F0.0
sg22
F0.0
sg23
F0.0
sg24
F213071.0
sg25
F0.0
sg26
F0.0
sg27
F0.0
ssS'POWERS WILLIAM'
p118
(dp119
g3
F653.0
sg4
F0.0
sg5
F0.0
sg6
I00
sg7
F0.0
sg8
F0.0
sg9
F-17500.0
sg10
F0.0
sg11
F12.0
sg12
F0.0
sg13
F26.0
sg14
F0.0
sg15
F0.0
sg16
F17500.0
sg17
F0.0
sg18
F0.0
sg19
F0.0
sg20
F0.0
sg21
F0.0
sg22
F0.0
sg23
F0.0
sg24
F0.0
sg25
F0.018376722817764167
sg26
F0.0
sg27
F0.0
ssS'GOLD JOSEPH'
p120
(dp121
g3
F0.0
sg4
F0.0
sg5
F0.0
sg6
I00
sg7
F304805.0
sg8
F0.0
sg9
F0.0
sg10
F0.0
sg11
F0.0
sg12
F0.0
sg13
F0.0
sg14
F819288.0
sg15
F0.0
sg16
F0.0
sg17
F750000.0
sg18
F877611.0
sg19
F0.0
sg20
F0.0
sg21
F441096.0
sg22
F272880.0
sg23
F0.34932903208377564
sg24
F2146973.0
sg25
F0.0
sg26
F436515.0
sg27
F2.748460861917326
ssS'BANNANTINE JAMES M'
p122
(dp123
g3
F566.0
sg4
F0.0
sg5
F56301.0
sg6
I00
sg7
F0.0
sg8
F39.0
sg9
F-5104.0
sg10
F-560222.0
sg11
F465.0
sg12
F0.0
sg13
F29.0
sg14
F864523.0
sg15
F0.06890459363957598
sg16
F0.0
sg17
F0.0
sg18
F5243487.0
sg19
F0.0
sg20
F0.0
sg21
F1757552.0
sg22
F477.0
sg23
F0.0
sg24
F916197.0
sg25
F0.8215547703180212
sg26
F4046157.0
sg27
F0.0
ssS'DUNCAN JOHN H'
p124
(dp125
g3
F0.0
sg4
F0.0
sg5
F0.0
sg6
I00
sg7
F0.0
sg8
F0.0
sg9
F-25000.0
sg10
F0.0
sg11
F0.0
sg12
F0.0
sg13
F0.0
sg14
F0.0
sg15
F0.0
sg16
F102492.0
sg17
F0.0
sg18
F371750.0
sg19
F0.0
sg20
F0.0
sg21
F0.0
sg22
F0.0
sg23
F0.0
sg24
F77492.0
sg25
F0.0
sg26
F371750.0
sg27
F0.0
ssS'SHAPIRO RICHARD S'
p126
(dp127
g3
F15149.0
sg4
F0.0
sg5
F137767.0
sg6
I00
sg7
F0.0
sg8
F74.0
sg9
F0.0
sg10
F0.0
sg11
F4527.0
sg12
F0.0
sg13
F1215.0
sg14
F705.0
sg15
F0.0048848108786058485
sg16
F0.0
sg17
F650000.0
sg18
F987001.0
sg19
F65.0
sg20
F0.053497942386831275
sg21
F379164.0
sg22
F269076.0
sg23
F0.6146293123338137
sg24
F1057548.0
sg25
F0.29883160604660375
sg26
F607837.0
sg27
F2.4156743819590005
ssS'SHERRIFF JOHN R'
p128
(dp129
g3
F3187.0
sg4
F0.0
sg5
F0.0
sg6
I00
sg7
F554422.0
sg8
F28.0
sg9
F0.0
sg10
F0.0
sg11
F2103.0
sg12
F0.0
sg13
F92.0
sg14
F1852186.0
sg15
F0.008785691873235017
sg16
F0.0
sg17
F1500000.0
sg18
F3128982.0
sg19
F23.0
sg20
F0.25
sg21
F1293424.0
sg22
F428780.0
sg23
F0.34598979376240374
sg24
F4335388.0
sg25
F0.6598682146219015
sg26
F1835558.0
sg27
F3.4982974952189934
ssS'SHELBY REX'
p130
(dp131
g3
F225.0
sg4
F0.0
sg5
F22884.0
sg6
I01
sg7
F0.0
sg8
F13.0
sg9
F-4167.0
sg10
F0.0
sg11
F91.0
sg12
F0.0
sg13
F39.0
sg14
F1573324.0
sg15
F0.057777777777777775
sg16
F0.0
sg17
F200000.0
sg18
F2493616.0
sg19
F14.0
sg20
F0.358974358974359
sg21
F869220.0
sg22
F211844.0
sg23
F0.09980612659908128
sg24
F2003885.0
sg25
F0.40444444444444444
sg26
F1624396.0
sg27
F0.9440909348388437
ssS'LEMAISTRE CHARLES'
p132
(dp133
g3
F0.0
sg4
F0.0
sg5
F0.0
sg6
I00
sg7
F0.0
sg8
F0.0
sg9
F-25000.0
sg10
F0.0
sg11
F0.0
sg12
F0.0
sg13
F0.0
sg14
F0.0
sg15
F0.0
sg16
F112492.0
sg17
F0.0
sg18
F412878.0
sg19
F0.0
sg20
F0.0
sg21
F0.0
sg22
F0.0
sg23
F0.0
sg24
F87492.0
sg25
F0.0
sg26
F412878.0
sg27
F0.0
ssS'DEFFNER JOSEPH M'
p134
(dp135
g3
F714.0
sg4
F0.0
sg5
F41626.0
sg6
I00
sg7
F335349.0
sg8
F115.0
sg9
F0.0
sg10
F0.0
sg11
F552.0
sg12
F0.0
sg13
F74.0
sg14
F25553.0
sg15
F0.16106442577030813
sg16
F0.0
sg17
F600000.0
sg18
F159211.0
sg19
F4.0
sg20
F0.05405405405405406
sg21
F141833.0
sg22
F206121.0
sg23
F0.49642203815996205
sg24
F1208649.0
sg25
F0.773109243697479
sg26
F17378.0
sg27
F2.910911551952494
ssS'KISHKILL JOSEPH G'
p136
(dp137
g3
F0.0
sg4
F0.0
sg5
F116335.0
sg6
I00
sg7
F0.0
sg8
F0.0
sg9
F-51042.0
sg10
F0.0
sg11
F0.0
sg12
F0.0
sg13
F0.0
sg14
F465357.0
sg15
F0.0
sg16
F0.0
sg17
F0.0
sg18
F1034346.0
sg19
F0.0
sg20
F0.0
sg21
F1034346.0
sg22
F174246.0
sg23
F0.0
sg24
F704896.0
sg25
F0.0
sg26
F0.0
sg27
F0.0
ssS'WHALLEY LAWRENCE G'
p138
(dp139
g3
F6019.0
sg4
F0.0
sg5
F57838.0
sg6
I00
sg7
F808346.0
sg8
F186.0
sg9
F0.0
sg10
F0.0
sg11
F3920.0
sg12
F0.0
sg13
F556.0
sg14
F301026.0
sg15
F0.03090214321315833
sg16
F0.0
sg17
F3000000.0
sg18
F6079137.0
sg19
F24.0
sg20
F0.04316546762589928
sg21
F2796177.0
sg22
F510364.0
sg23
F0.6413581057189047
sg24
F4677574.0
sg25
F0.6512709752450573
sg26
F3282960.0
sg27
F5.878157550297435
ssS'MCCARTY DANNY J'
p140
(dp141
g3
F1433.0
sg4
F0.0
sg5
F0.0
sg6
I00
sg7
F0.0
sg8
F25.0
sg9
F0.0
sg10
F0.0
sg11
F508.0
sg12
F0.0
sg13
F215.0
sg14
F0.0
sg15
F0.017445917655268667
sg16
F0.0
sg17
F0.0
sg18
F758931.0
sg19
F2.0
sg20
F0.009302325581395349
sg21
F94556.0
sg22
F0.0
sg23
F0.0
sg24
F0.0
sg25
F0.35450104675505933
sg26
F664375.0
sg27
F0.0
ssS'MCCONNELL MICHAEL S'
p142
(dp143
g3
F3329.0
sg4
F0.0
sg5
F81364.0
sg6
I00
sg7
F554422.0
sg8
F92.0
sg9
F0.0
sg10
F0.0
sg11
F2189.0
sg12
F0.0
sg13
F2742.0
sg14
F540.0
sg15
F0.02763592670471613
sg16
F0.0
sg17
F1100000.0
sg18
F3101279.0
sg19
F194.0
sg20
F0.07075127644055434
sg21
F1478269.0
sg22
F365038.0
sg23
F0.5234695178940917
sg24
F2101364.0
sg25
F0.657554821267648
sg26
F1623010.0
sg27
F3.013384907872605
ssS'DELAINEY DAVID W'
p144
(dp145
g3
F3093.0
sg4
F0.0
sg5
F86174.0
sg6
I01
sg7
F1294981.0
sg8
F66.0
sg9
F0.0
sg10
F0.0
sg11
F2097.0
sg12
F0.0
sg13
F3069.0
sg14
F1661.0
sg15
F0.02133850630455868
sg16
F0.0
sg17
F3000000.0
sg18
F3614261.0
sg19
F609.0
sg20
F0.198435972629521
sg21
F1323148.0
sg22
F365163.0
sg23
F0.6318477819720769
sg24
F4747979.0
sg25
F0.6779825412221144
sg26
F2291113.0
sg27
F8.215509238340138
ssS'SULLIVAN-SHAKLOVITZ COLLEEN'
p146
(dp147
g3
F0.0
sg4
F181993.0
sg5
F0.0
sg6
I00
sg7
F554422.0
sg8
F0.0
sg9
F0.0
sg10
F0.0
sg11
F0.0
sg12
F0.0
sg13
F0.0
sg14
F162.0
sg15
F0.0
sg16
F0.0
sg17
F100000.0
sg18
F1362375.0
sg19
F0.0
sg20
F0.0
sg21
F0.0
sg22
F162779.0
sg23
F0.10006444150032621
sg24
F999356.0
sg25
F0.0
sg26
F1362375.0
sg27
F0.6143298582741017
ssS'WROBEL BRUCE'
p148
(dp149
g3
F0.0
sg4
F0.0
sg5
F0.0
sg6
I00
sg7
F0.0
sg8
F0.0
sg9
F0.0
sg10
F0.0
sg11
F0.0
sg12
F0.0
sg13
F0.0
sg14
F0.0
sg15
F0.0
sg16
F0.0
sg17
F0.0
sg18
F139130.0
sg19
F0.0
sg20
F0.0
sg21
F0.0
sg22
F0.0
sg23
F0.0
sg24
F0.0
sg25
F0.0
sg26
F139130.0
sg27
F0.0
ssS'LINDHOLM TOD A'
p150
(dp151
g3
F0.0
sg4
F204075.0
sg5
F57727.0
sg6
I00
sg7
F175000.0
sg8
F0.0
sg9
F0.0
sg10
F0.0
sg11
F0.0
sg12
F0.0
sg13
F0.0
sg14
F2630.0
sg15
F0.0
sg16
F0.0
sg17
F200000.0
sg18
F3064208.0
sg19
F0.0
sg20
F0.0
sg21
F514847.0
sg22
F236457.0
sg23
F0.22833943570475254
sg24
F875889.0
sg25
F0.0
sg26
F2549361.0
sg27
F0.8458197473536415
ssS'MEYER JEROME J'
p152
(dp153
g3
F0.0
sg4
F0.0
sg5
F2151.0
sg6
I00
sg7
F0.0
sg8
F0.0
sg9
F-38346.0
sg10
F0.0
sg11
F0.0
sg12
F0.0
sg13
F0.0
sg14
F0.0
sg15
F0.0
sg16
F38346.0
sg17
F0.0
sg18
F0.0
sg19
F0.0
sg20
F0.0
sg21
F0.0
sg22
F0.0
sg23
F0.0
sg24
F2151.0
sg25
F0.0
sg26
F0.0
sg27
F0.0
ssS'LAY KENNETH L'
p154
(dp155
g3
F4273.0
sg4
F202911.0
sg5
F99832.0
sg6
I01
sg7
F3600000.0
sg8
F123.0
sg9
F-300000.0
sg10
F0.0
sg11
F2411.0
sg12
F81525000.0
sg13
F36.0
sg14
F10359729.0
sg15
F0.028785396676807865
sg16
F0.0
sg17
F7000000.0
sg18
F49110078.0
sg19
F16.0
sg20
F0.4444444444444444
sg21
F14761694.0
sg22
F1072321.0
sg23
F0.06759380061719514
sg24
F103559793.0
sg25
F0.5642405803884858
sg26
F34348384.0
sg27
F6.527896031132468
ssS'BUTTS ROBERT H'
p156
(dp157
g3
F0.0
sg4
F0.0
sg5
F9410.0
sg6
I00
sg7
F175000.0
sg8
F0.0
sg9
F-75000.0
sg10
F0.0
sg11
F0.0
sg12
F0.0
sg13
F0.0
sg14
F150656.0
sg15
F0.0
sg16
F0.0
sg17
F750000.0
sg18
F417619.0
sg19
F0.0
sg20
F0.0
sg21
F417619.0
sg22
F261516.0
sg23
F0.5898164648445794
sg24
F1271582.0
sg25
F0.0
sg26
F0.0
sg27
F2.8678933602532926
ssS'OLSON CINDY K'
p158
(dp159
g3
F1184.0
sg4
F77716.0
sg5
F63791.0
sg6
I00
sg7
F100000.0
sg8
F20.0
sg9
F0.0
sg10
F0.0
sg11
F856.0
sg12
F0.0
sg13
F52.0
sg14
F972.0
sg15
F0.016891891891891893
sg16
F0.0
sg17
F750000.0
sg18
F2606763.0
sg19
F15.0
sg20
F0.28846153846153844
sg21
F969729.0
sg22
F329078.0
sg23
F0.5675124114964394
sg24
F1321557.0
sg25
F0.722972972972973
sg26
F1637034.0
sg27
F2.279094925823057
ssS'MCDONALD REBECCA'
p160
(dp161
g3
F894.0
sg4
F0.0
sg5
F0.0
sg6
I00
sg7
F0.0
sg8
F54.0
sg9
F0.0
sg10
F0.0
sg11
F720.0
sg12
F0.0
sg13
F13.0
sg14
F0.0
sg15
F0.06040268456375839
sg16
F0.0
sg17
F0.0
sg18
F1691366.0
sg19
F1.0
sg20
F0.07692307692307693
sg21
F934065.0
sg22
F0.0
sg23
F0.0
sg24
F0.0
sg25
F0.8053691275167785
sg26
F757301.0
sg27
F0.0
ssS'CUMBERLAND MICHAEL S'
p162
(dp163
g3
F0.0
sg4
F0.0
sg5
F22344.0
sg6
I00
sg7
F275000.0
sg8
F0.0
sg9
F0.0
sg10
F0.0
sg11
F0.0
sg12
F0.0
sg13
F0.0
sg14
F713.0
sg15
F0.0
sg16
F0.0
sg17
F325000.0
sg18
F207940.0
sg19
F0.0
sg20
F0.0
sg21
F207940.0
sg22
F184899.0
sg23
F0.4022496274549604
sg24
F807956.0
sg25
F0.0
sg26
F0.0
sg27
F1.7577163748857485
ssS'GAHN ROBERT S'
p164
(dp165
g3
F0.0
sg4
F73122.0
sg5
F50080.0
sg6
I00
sg7
F0.0
sg8
F0.0
sg9
F-1042.0
sg10
F0.0
sg11
F0.0
sg12
F0.0
sg13
F0.0
sg14
F76547.0
sg15
F0.0
sg16
F0.0
sg17
F509870.0
sg18
F318607.0
sg19
F0.0
sg20
F0.0
sg21
F235370.0
sg22
F192008.0
sg23
F0.5661542219779365
sg24
F900585.0
sg25
F0.0
sg26
F83237.0
sg27
F2.6554622724053165
ssS'MCCLELLAN GEORGE'
p166
(dp167
g3
F1744.0
sg4
F0.0
sg5
F228763.0
sg6
I00
sg7
F0.0
sg8
F52.0
sg9
F-125000.0
sg10
F0.0
sg11
F1469.0
sg12
F0.0
sg13
F49.0
sg14
F51587.0
sg15
F0.02981651376146789
sg16
F0.0
sg17
F900000.0
sg18
F947861.0
sg19
F0.0
sg20
F0.0
sg21
F441096.0
sg22
F263413.0
sg23
F0.6824577274309334
sg24
F1318763.0
sg25
F0.8423165137614679
sg26
F506765.0
sg27
F3.4166878627858153
ssS'HERMANN ROBERT J'
p168
(dp169
g3
F0.0
sg4
F0.0
sg5
F48357.0
sg6
I00
sg7
F150000.0
sg8
F0.0
sg9
F-280000.0
sg10
F0.0
sg11
F0.0
sg12
F0.0
sg13
F0.0
sg14
F416441.0
sg15
F0.0
sg16
F0.0
sg17
F700000.0
sg18
F668132.0
sg19
F0.0
sg20
F0.0
sg21
F480632.0
sg22
F262663.0
sg23
F0.5395152532523135
sg24
F1297461.0
sg25
F0.0
sg26
F187500.0
sg27
F2.665011821231007
ssS'SCRIMSHAW MATTHEW'
p170
(dp171
g3
F0.0
sg4
F0.0
sg5
F0.0
sg6
I00
sg7
F0.0
sg8
F0.0
sg9
F0.0
sg10
F0.0
sg11
F0.0
sg12
F0.0
sg13
F0.0
sg14
F0.0
sg15
F0.0
sg16
F0.0
sg17
F0.0
sg18
F759557.0
sg19
F0.0
sg20
F0.0
sg21
F0.0
sg22
F0.0
sg23
F0.0
sg24
F0.0
sg25
F0.0
sg26
F759557.0
sg27
F0.0
ssS'GATHMANN WILLIAM D'
p172
(dp173
g3
F0.0
sg4
F0.0
sg5
F0.0
sg6
I00
sg7
F0.0
sg8
F0.0
sg9
F0.0
sg10
F-72419.0
sg11
F0.0
sg12
F0.0
sg13
F0.0
sg14
F0.0
sg15
F0.0
sg16
F0.0
sg17
F0.0
sg18
F1945360.0
sg19
F0.0
sg20
F0.0
sg21
F264013.0
sg22
F0.0
sg23
F0.0
sg24
F0.0
sg25
F0.0
sg26
F1753766.0
sg27
F0.0
ssS'HAEDICKE MARK E'
p174
(dp175
g3
F4009.0
sg4
F2157527.0
sg5
F76169.0
sg6
I00
sg7
F983346.0
sg8
F180.0
sg9
F-934484.0
sg10
F-329825.0
sg11
F1847.0
sg12
F0.0
sg13
F1941.0
sg14
F52382.0
sg15
F0.04489897730107259
sg16
F0.0
sg17
F1150000.0
sg18
F803094.0
sg19
F61.0
sg20
F0.03142709943328181
sg21
F524169.0
sg22
F374125.0
sg23
F0.29799964499172726
sg24
F3859065.0
sg25
F0.4607133948615615
sg26
F608750.0
sg27
F3.073838957567658
ssS'BOWEN JR RAYMOND M'
p176
(dp177
g3
F1858.0
sg4
F0.0
sg5
F65907.0
sg6
I01
sg7
F974293.0
sg8
F140.0
sg9
F-833.0
sg10
F0.0
sg11
F1593.0
sg12
F0.0
sg13
F27.0
sg14
F1621.0
sg15
F0.07534983853606028
sg16
F0.0
sg17
F1350000.0
sg18
F252055.0
sg19
F15.0
sg20
F0.5555555555555556
sg21
F252055.0
sg22
F278601.0
sg23
F0.5056958205926081
sg24
F2669589.0
sg25
F0.8573735199138859
sg26
F0.0
sg27
F4.845639462887786
ssS'GILLIS JOHN'
p178
(dp179
g3
F0.0
sg4
F0.0
sg5
F0.0
sg6
I00
sg7
F0.0
sg8
F0.0
sg9
F0.0
sg10
F0.0
sg11
F0.0
sg12
F0.0
sg13
F0.0
sg14
F0.0
sg15
F0.0
sg16
F0.0
sg17
F0.0
sg18
F85641.0
sg19
F0.0
sg20
F0.0
sg21
F75838.0
sg22
F0.0
sg23
F0.0
sg24
F0.0
sg25
F0.0
sg26
F9803.0
sg27
F0.0
ssS'FITZGERALD JAY L'
p180
(dp181
g3
F936.0
sg4
F0.0
sg5
F23870.0
sg6
I00
sg7
F556416.0
sg8
F1.0
sg9
F0.0
sg10
F0.0
sg11
F723.0
sg12
F0.0
sg13
F16.0
sg14
F285414.0
sg15
F0.0010683760683760685
sg16
F0.0
sg17
F350000.0
sg18
F1621236.0
sg19
F8.0
sg20
F0.5
sg21
F956775.0
sg22
F199157.0
sg23
F0.24737482303865338
sg24
F1414857.0
sg25
F0.7724358974358975
sg26
F664461.0
sg27
F1.7574074724965731
ssS'MORAN MICHAEL P'
p182
(dp183
g3
F672.0
sg4
F0.0
sg5
F0.0
sg6
I00
sg7
F0.0
sg8
F0.0
sg9
F0.0
sg10
F0.0
sg11
F127.0
sg12
F0.0
sg13
F19.0
sg14
F0.0
sg15
F0.0
sg16
F0.0
sg17
F0.0
sg18
F221141.0
sg19
F0.0
sg20
F0.0
sg21
F161602.0
sg22
F0.0
sg23
F0.0
sg24
F0.0
sg25
F0.18898809523809523
sg26
F59539.0
sg27
F0.0
ssS'REDMOND BRIAN L'
p184
(dp185
g3
F1671.0
sg4
F0.0
sg5
F14689.0
sg6
I00
sg7
F0.0
sg8
F204.0
sg9
F0.0
sg10
F0.0
sg11
F1063.0
sg12
F0.0
sg13
F221.0
sg14
F0.0
sg15
F0.12208258527827648
sg16
F0.0
sg17
F0.0
sg18
F7890324.0
sg19
F49.0
sg20
F0.22171945701357465
sg21
F381285.0
sg22
F96840.0
sg23
F0.0
sg24
F111529.0
sg25
F0.6361460203470976
sg26
F7509039.0
sg27
F0.0
ssS'BAZELIDES PHILIP J'
p186
(dp187
g3
F0.0
sg4
F684694.0
sg5
F0.0
sg6
I00
sg7
F93750.0
sg8
F0.0
sg9
F0.0
sg10
F0.0
sg11
F0.0
sg12
F0.0
sg13
F0.0
sg14
F874.0
sg15
F0.0
sg16
F0.0
sg17
F0.0
sg18
F1599641.0
sg19
F0.0
sg20
F0.0
sg21
F0.0
sg22
F80818.0
sg23
F0.0
sg24
F860136.0
sg25
F0.0
sg26
F1599641.0
sg27
F0.0
ssS'BELDEN TIMOTHY N'
p188
(dp189
g3
F7991.0
sg4
F2144013.0
sg5
F17355.0
sg6
I01
sg7
F0.0
sg8
F228.0
sg9
F-2334434.0
sg10
F0.0
sg11
F5521.0
sg12
F0.0
sg13
F484.0
sg14
F210698.0
sg15
F0.028532098610937303
sg16
F0.0
sg17
F5249999.0
sg18
F1110705.0
sg19
F108.0
sg20
F0.2231404958677686
sg21
F157569.0
sg22
F213999.0
sg23
F0.9542624640333864
sg24
F5501630.0
sg25
F0.6909022650481792
sg26
F953136.0
sg27
F24.532820246823583
ssS'DURAN WILLIAM D'
p190
(dp191
g3
F904.0
sg4
F0.0
sg5
F25785.0
sg6
I00
sg7
F1105218.0
sg8
F106.0
sg9
F0.0
sg10
F0.0
sg11
F599.0
sg12
F0.0
sg13
F12.0
sg14
F1568.0
sg15
F0.1172566371681416
sg16
F0.0
sg17
F750000.0
sg18
F1640910.0
sg19
F3.0
sg20
F0.25
sg21
F189041.0
sg22
F210692.0
sg23
F0.3582922929416896
sg24
F2093263.0
sg25
F0.6626106194690266
sg26
F1451869.0
sg27
F3.559698517266911
ssS'THORN TERENCE H'
p192
(dp193
g3
F266.0
sg4
F16586.0
sg5
F46145.0
sg6
I00
sg7
F200000.0
sg8
F0.0
sg9
F0.0
sg10
F0.0
sg11
F73.0
sg12
F0.0
sg13
F41.0
sg14
F426629.0
sg15
F0.0
sg16
F0.0
sg17
F0.0
sg18
F4817796.0
sg19
F0.0
sg20
F0.0
sg21
F365320.0
sg22
F222093.0
sg23
F0.0
sg24
F911453.0
sg25
F0.2744360902255639
sg26
F4452476.0
sg27
F0.0
ssS'FASTOW ANDREW S'
p194
(dp195
g3
F0.0
sg4
F0.0
sg5
F55921.0
sg6
I01
sg7
F1736055.0
sg8
F0.0
sg9
F-1386055.0
sg10
F0.0
sg11
F0.0
sg12
F0.0
sg13
F0.0
sg14
F277464.0
sg15
F0.0
sg16
F0.0
sg17
F1300000.0
sg18
F1794412.0
sg19
F0.0
sg20
F0.0
sg21
F1794412.0
sg22
F440698.0
sg23
F0.5362852674599013
sg24
F2424083.0
sg25
F0.0
sg26
F0.0
sg27
F2.949865894558178
ssS'FOY JOE'
p196
(dp197
g3
F57.0
sg4
F181755.0
sg5
F0.0
sg6
I00
sg7
F0.0
sg8
F0.0
sg9
F0.0
sg10
F0.0
sg11
F2.0
sg12
F0.0
sg13
F13.0
sg14
F0.0
sg15
F0.0
sg16
F0.0
sg17
F0.0
sg18
F343434.0
sg19
F0.0
sg20
F0.0
sg21
F0.0
sg22
F0.0
sg23
F0.0
sg24
F181755.0
sg25
F0.03508771929824561
sg26
F343434.0
sg27
F0.0
ssS'CALGER CHRISTOPHER F'
p198
(dp199
g3
F2598.0
sg4
F0.0
sg5
F35818.0
sg6
I01
sg7
F375304.0
sg8
F199.0
sg9
F-262500.0
sg10
F0.0
sg11
F2188.0
sg12
F0.0
sg13
F144.0
sg14
F486.0
sg15
F0.07659738260200154
sg16
F0.0
sg17
F1250000.0
sg18
F126027.0
sg19
F25.0
sg20
F0.1736111111111111
sg21
F126027.0
sg22
F240189.0
sg23
F0.7625219835087845
sg24
F1639297.0
sg25
F0.8421862971516552
sg26
F0.0
sg27
F5.204234998272194
ssS'RICE KENNETH D'
p200
(dp201
g3
F905.0
sg4
F0.0
sg5
F46950.0
sg6
I01
sg7
F1617011.0
sg8
F42.0
sg9
F-3504386.0
sg10
F0.0
sg11
F864.0
sg12
F0.0
sg13
F18.0
sg14
F174839.0
sg15
F0.04640883977900553
sg16
F0.0
sg17
F1750000.0
sg18
F22542539.0
sg19
F4.0
sg20
F0.2222222222222222
sg21
F2748364.0
sg22
F420636.0
sg23
F3.465003465003465
sg24
F505050.0
sg25
F0.9546961325966851
sg26
F19794175.0
sg27
F4.160366682832663
ssS'KAMINSKI WINCENTY J'
p202
(dp203
g3
F4607.0
sg4
F0.0
sg5
F83585.0
sg6
I00
sg7
F323466.0
sg8
F41.0
sg9
F0.0
sg10
F0.0
sg11
F583.0
sg12
F0.0
sg13
F14368.0
sg14
F4669.0
sg15
F0.008899500759713479
sg16
F0.0
sg17
F400000.0
sg18
F976037.0
sg19
F171.0
sg20
F0.011901447661469933
sg21
F126027.0
sg22
F275101.0
sg23
F0.368045887961311
sg24
F1086821.0
sg25
F0.1265465595832429
sg26
F850010.0
sg27
F1.4540114357999425
ssS'LOCKHART EUGENE E'
p204
(dp205
g3
F0.0
sg4
F0.0
sg5
F0.0
sg6
I00
sg7
F0.0
sg8
F0.0
sg9
F0.0
sg10
F0.0
sg11
F0.0
sg12
F0.0
sg13
F0.0
sg14
F0.0
sg15
F0.0
sg16
F0.0
sg17
F0.0
sg18
F0.0
sg19
F0.0
sg20
F0.0
sg21
F0.0
sg22
F0.0
sg23
F0.0
sg24
F0.0
sg25
F0.0
sg26
F0.0
sg27
F0.0
ssS'COX DAVID'
p206
(dp207
g3
F102.0
sg4
F0.0
sg5
F27861.0
sg6
I00
sg7
F0.0
sg8
F0.0
sg9
F-41250.0
sg10
F0.0
sg11
F71.0
sg12
F0.0
sg13
F33.0
sg14
F494.0
sg15
F0.0
sg16
F0.0
sg17
F800000.0
sg18
F495633.0
sg19
F4.0
sg20
F0.12121212121212122
sg21
F378082.0
sg22
F314288.0
sg23
F0.7263529003725282
sg24
F1101393.0
sg25
F0.696078431372549
sg26
F117551.0
sg27
F2.5454360331924857
ssS'OVERDYKE JR JERE C'
p208
(dp209
g3
F0.0
sg4
F0.0
sg5
F18834.0
sg6
I00
sg7
F135836.0
sg8
F0.0
sg9
F0.0
sg10
F0.0
sg11
F0.0
sg12
F0.0
sg13
F0.0
sg14
F176.0
sg15
F0.0
sg16
F0.0
sg17
F0.0
sg18
F7307594.0
sg19
F0.0
sg20
F0.0
sg21
F2041016.0
sg22
F94941.0
sg23
F0.0
sg24
F249787.0
sg25
F0.0
sg26
F5266578.0
sg27
F0.0
ssS'PEREIRA PAULO V. FERRAZ'
p210
(dp211
g3
F0.0
sg4
F0.0
sg5
F27942.0
sg6
I00
sg7
F0.0
sg8
F0.0
sg9
F-101250.0
sg10
F0.0
sg11
F0.0
sg12
F0.0
sg13
F0.0
sg14
F0.0
sg15
F0.0
sg16
F101250.0
sg17
F0.0
sg18
F0.0
sg19
F0.0
sg20
F0.0
sg21
F0.0
sg22
F0.0
sg23
F0.0
sg24
F27942.0
sg25
F0.0
sg26
F0.0
sg27
F0.0
ssS'STABLER FRANK'
p212
(dp213
g3
F0.0
sg4
F0.0
sg5
F16514.0
sg6
I00
sg7
F0.0
sg8
F0.0
sg9
F0.0
sg10
F0.0
sg11
F0.0
sg12
F0.0
sg13
F0.0
sg14
F356071.0
sg15
F0.0
sg16
F0.0
sg17
F500000.0
sg18
F511734.0
sg19
F0.0
sg20
F0.0
sg21
F511734.0
sg22
F239502.0
sg23
F0.44960511183027946
sg24
F1112087.0
sg25
F0.0
sg26
F0.0
sg27
F2.0876652387036434
ssS'SKILLING JEFFREY K'
p214
(dp215
g3
F3627.0
sg4
F0.0
sg5
F29336.0
sg6
I01
sg7
F1920000.0
sg8
F88.0
sg9
F0.0
sg10
F0.0
sg11
F2042.0
sg12
F0.0
sg13
F108.0
sg14
F22122.0
sg15
F0.0242624758753791
sg16
F0.0
sg17
F5600000.0
sg18
F26093672.0
sg19
F30.0
sg20
F0.2777777777777778
sg21
F6843672.0
sg22
F1111258.0
sg23
F0.6449594804206426
sg24
F8682716.0
sg25
F0.5629997242900469
sg26
F19250000.0
sg27
F5.03933380007163
ssS'BLAKE JR. NORMAN P'
p216
(dp217
g3
F0.0
sg4
F0.0
sg5
F1279.0
sg6
I00
sg7
F0.0
sg8
F0.0
sg9
F-113784.0
sg10
F0.0
sg11
F0.0
sg12
F0.0
sg13
F0.0
sg14
F0.0
sg15
F0.0
sg16
F113784.0
sg17
F0.0
sg18
F0.0
sg19
F0.0
sg20
F0.0
sg21
F0.0
sg22
F0.0
sg23
F0.0
sg24
F1279.0
sg25
F0.0
sg26
F0.0
sg27
F0.0
ssS'SHERRICK JEFFREY B'
p218
(dp219
g3
F613.0
sg4
F0.0
sg5
F0.0
sg6
I00
sg7
F0.0
sg8
F39.0
sg9
F0.0
sg10
F0.0
sg11
F583.0
sg12
F0.0
sg13
F25.0
sg14
F0.0
sg15
F0.0636215334420881
sg16
F0.0
sg17
F0.0
sg18
F1832468.0
sg19
F18.0
sg20
F0.72
sg21
F405999.0
sg22
F0.0
sg23
F0.0
sg24
F0.0
sg25
F0.9510603588907015
sg26
F1426469.0
sg27
F0.0
ssS'PRENTICE JAMES'
p220
(dp221
g3
F0.0
sg4
F564348.0
sg5
F0.0
sg6
I00
sg7
F0.0
sg8
F0.0
sg9
F0.0
sg10
F0.0
sg11
F0.0
sg12
F0.0
sg13
F0.0
sg14
F0.0
sg15
F0.0
sg16
F0.0
sg17
F0.0
sg18
F1095040.0
sg19
F0.0
sg20
F0.0
sg21
F208809.0
sg22
F0.0
sg23
F0.0
sg24
F564348.0
sg25
F0.0
sg26
F886231.0
sg27
F0.0
ssS'GRAY RODNEY'
p222
(dp223
g3
F0.0
sg4
F93585.0
sg5
F0.0
sg6
I00
sg7
F365625.0
sg8
F0.0
sg9
F0.0
sg10
F0.0
sg11
F0.0
sg12
F0.0
sg13
F0.0
sg14
F680833.0
sg15
F0.0
sg16
F0.0
sg17
F0.0
sg18
F0.0
sg19
F0.0
sg20
F0.0
sg21
F0.0
sg22
F6615.0
sg23
F0.0
sg24
F1146658.0
sg25
F0.0
sg26
F0.0
sg27
F0.0
ssS'PICKERING MARK R'
p224
(dp225
g3
F898.0
sg4
F0.0
sg5
F31653.0
sg6
I00
sg7
F0.0
sg8
F7.0
sg9
F0.0
sg10
F0.0
sg11
F728.0
sg12
F400000.0
sg13
F67.0
sg14
F0.0
sg15
F0.0077951002227171495
sg16
F0.0
sg17
F300000.0
sg18
F28798.0
sg19
F0.0
sg20
F0.0
sg21
F0.0
sg22
F655037.0
sg23
F0.21634251346732147
sg24
F1386690.0
sg25
F0.8106904231625836
sg26
F28798.0
sg27
F0.45798939601885086
ssS'NOLES JAMES L'
p226
(dp227
g3
F0.0
sg4
F774401.0
sg5
F0.0
sg6
I00
sg7
F0.0
sg8
F0.0
sg9
F0.0
sg10
F-94556.0
sg11
F0.0
sg12
F0.0
sg13
F0.0
sg14
F0.0
sg15
F0.0
sg16
F0.0
sg17
F0.0
sg18
F368705.0
sg19
F0.0
sg20
F0.0
sg21
F463261.0
sg22
F0.0
sg23
F0.0
sg24
F774401.0
sg25
F0.0
sg26
F0.0
sg27
F0.0
ssS'KEAN STEVEN J'
p228
(dp229
g3
F12754.0
sg4
F0.0
sg5
F41953.0
sg6
I00
sg7
F300000.0
sg8
F140.0
sg9
F0.0
sg10
F0.0
sg11
F3639.0
sg12
F0.0
sg13
F6759.0
sg14
F1231.0
sg15
F0.010976948408342482
sg16
F0.0
sg17
F1000000.0
sg18
F6153642.0
sg19
F387.0
sg20
F0.05725699067909454
sg21
F4131594.0
sg22
F404338.0
sg23
F0.5722388616566773
sg24
F1747522.0
sg25
F0.2853222518425592
sg26
F2022048.0
sg27
F2.473178380463869
ssS'FOWLER PEGGY'
p230
(dp231
g3
F517.0
sg4
F0.0
sg5
F0.0
sg6
I00
sg7
F0.0
sg8
F0.0
sg9
F0.0
sg10
F0.0
sg11
F10.0
sg12
F0.0
sg13
F36.0
sg14
F0.0
sg15
F0.0
sg16
F0.0
sg17
F0.0
sg18
F1884748.0
sg19
F0.0
sg20
F0.0
sg21
F560170.0
sg22
F0.0
sg23
F0.0
sg24
F0.0
sg25
F0.019342359767891684
sg26
F1324578.0
sg27
F0.0
ssS'WASAFF GEORGE'
p232
(dp233
g3
F400.0
sg4
F831299.0
sg5
F0.0
sg6
I00
sg7
F200000.0
sg8
F22.0
sg9
F-583325.0
sg10
F0.0
sg11
F337.0
sg12
F0.0
sg13
F30.0
sg14
F1425.0
sg15
F0.055
sg16
F0.0
sg17
F325000.0
sg18
F2056427.0
sg19
F7.0
sg20
F0.23333333333333334
sg21
F388167.0
sg22
F259996.0
sg23
F0.3141933207333755
sg24
F1034395.0
sg25
F0.8425
sg26
F1668260.0
sg27
F1.2500192310650933
ssS'WHITE JR THOMAS E'
p234
(dp235
g3
F0.0
sg4
F0.0
sg5
F81353.0
sg6
I00
sg7
F0.0
sg8
F0.0
sg9
F0.0
sg10
F0.0
sg11
F0.0
sg12
F0.0
sg13
F0.0
sg14
F1085463.0
sg15
F0.0
sg16
F0.0
sg17
F450000.0
sg18
F15144123.0
sg19
F0.0
sg20
F0.0
sg21
F13847074.0
sg22
F317543.0
sg23
F0.23263520370313887
sg24
F1934359.0
sg25
F0.0
sg26
F1297049.0
sg27
F1.417130908254945
ssS'CHRISTODOULOU DIOMEDES'
p236
(dp237
g3
F0.0
sg4
F0.0
sg5
F0.0
sg6
I00
sg7
F0.0
sg8
F0.0
sg9
F0.0
sg10
F0.0
sg11
F0.0
sg12
F0.0
sg13
F0.0
sg14
F0.0
sg15
F0.0
sg16
F0.0
sg17
F0.0
sg18
F6077885.0
sg19
F0.0
sg20
F0.0
sg21
F950730.0
sg22
F0.0
sg23
F0.0
sg24
F0.0
sg25
F0.0
sg26
F5127155.0
sg27
F0.0
ssS'ALLEN PHILLIP K'
p238
(dp239
g3
F2902.0
sg4
F2869717.0
sg5
F13868.0
sg6
I00
sg7
F304805.0
sg8
F47.0
sg9
F-3081055.0
sg10
F-126027.0
sg11
F1407.0
sg12
F0.0
sg13
F2195.0
sg14
F152.0
sg15
F0.016195727084769126
sg16
F0.0
sg17
F4175000.0
sg18
F1729541.0
sg19
F65.0
sg20
F0.029612756264236904
sg21
F126027.0
sg22
F201955.0
sg23
F0.9309965431596617
sg24
F4484442.0
sg25
F0.4848380427291523
sg26
F1729541.0
sg27
F20.672922185635414
ssS'SHARP VICTORIA T'
p240
(dp241
g3
F3136.0
sg4
F187469.0
sg5
F116337.0
sg6
I00
sg7
F422158.0
sg8
F24.0
sg9
F0.0
sg10
F0.0
sg11
F2477.0
sg12
F0.0
sg13
F136.0
sg14
F2401.0
sg15
F0.007653061224489796
sg16
F0.0
sg17
F600000.0
sg18
F494136.0
sg19
F6.0
sg20
F0.04411764705882353
sg21
F213063.0
sg22
F248146.0
sg23
F0.38058725882661143
sg24
F1576511.0
sg25
F0.7898596938775511
sg26
F281073.0
sg27
F2.417931379107461
ssS'JAEDICKE ROBERT'
p242
(dp243
g3
F0.0
sg4
F0.0
sg5
F0.0
sg6
I00
sg7
F0.0
sg8
F0.0
sg9
F-25000.0
sg10
F-44093.0
sg11
F0.0
sg12
F0.0
sg13
F0.0
sg14
F0.0
sg15
F0.0
sg16
F108750.0
sg17
F0.0
sg18
F431750.0
sg19
F0.0
sg20
F0.0
sg21
F44093.0
sg22
F0.0
sg23
F0.0
sg24
F83750.0
sg25
F0.0
sg26
F431750.0
sg27
F0.0
ssS'WINOKUR JR. HERBERT S'
p244
(dp245
g3
F0.0
sg4
F0.0
sg5
F1413.0
sg6
I00
sg7
F0.0
sg8
F0.0
sg9
F-25000.0
sg10
F0.0
sg11
F0.0
sg12
F0.0
sg13
F0.0
sg14
F0.0
sg15
F0.0
sg16
F108579.0
sg17
F0.0
sg18
F0.0
sg19
F0.0
sg20
F0.0
sg21
F0.0
sg22
F0.0
sg23
F0.0
sg24
F84992.0
sg25
F0.0
sg26
F0.0
sg27
F0.0
ssS'BROWN MICHAEL'
p246
(dp247
g3
F1486.0
sg4
F0.0
sg5
F49288.0
sg6
I00
sg7
F0.0
sg8
F13.0
sg9
F0.0
sg10
F0.0
sg11
F761.0
sg12
F0.0
sg13
F41.0
sg14
F0.0
sg15
F0.008748317631224764
sg16
F0.0
sg17
F0.0
sg18
F0.0
sg19
F1.0
sg20
F0.024390243902439025
sg21
F0.0
sg22
F0.0
sg23
F0.0
sg24
F49288.0
sg25
F0.5121130551816958
sg26
F0.0
sg27
F0.0
ssS'BADUM JAMES P'
p248
(dp249
g3
F0.0
sg4
F178980.0
sg5
F3486.0
sg6
I00
sg7
F0.0
sg8
F0.0
sg9
F0.0
sg10
F0.0
sg11
F0.0
sg12
F0.0
sg13
F0.0
sg14
F0.0
sg15
F0.0
sg16
F0.0
sg17
F0.0
sg18
F257817.0
sg19
F0.0
sg20
F0.0
sg21
F0.0
sg22
F0.0
sg23
F0.0
sg24
F182466.0
sg25
F0.0
sg26
F257817.0
sg27
F0.0
ssS'HUGHES JAMES A'
p250
(dp251
g3
F719.0
sg4
F0.0
sg5
F0.0
sg6
I00
sg7
F0.0
sg8
F35.0
sg9
F0.0
sg10
F0.0
sg11
F589.0
sg12
F0.0
sg13
F34.0
sg14
F0.0
sg15
F0.048678720445062586
sg16
F0.0
sg17
F0.0
sg18
F1118394.0
sg19
F5.0
sg20
F0.14705882352941177
sg21
F363428.0
sg22
F0.0
sg23
F0.0
sg24
F0.0
sg25
F0.8191933240611962
sg26
F754966.0
sg27
F0.0
ssS'REYNOLDS LAWRENCE'
p252
(dp253
g3
F0.0
sg4
F51365.0
sg5
F8409.0
sg6
I00
sg7
F156250.0
sg8
F0.0
sg9
F-200000.0
sg10
F-140264.0
sg11
F0.0
sg12
F0.0
sg13
F0.0
sg14
F202052.0
sg15
F0.0
sg16
F0.0
sg17
F100000.0
sg18
F4221891.0
sg19
F0.0
sg20
F0.0
sg21
F201483.0
sg22
F76399.0
sg23
F0.2535014893212498
sg24
F394475.0
sg25
F0.0
sg26
F4160672.0
sg27
F1.3089176559902616
ssS'DIMICHELE RICHARD G'
p254
(dp255
g3
F0.0
sg4
F0.0
sg5
F35812.0
sg6
I00
sg7
F694862.0
sg8
F0.0
sg9
F0.0
sg10
F0.0
sg11
F0.0
sg12
F0.0
sg13
F0.0
sg14
F374689.0
sg15
F0.0
sg16
F0.0
sg17
F1000000.0
sg18
F8317782.0
sg19
F0.0
sg20
F0.0
sg21
F126027.0
sg22
F262788.0
sg23
F0.42227037042823706
sg24
F2368151.0
sg25
F0.0
sg26
F8191755.0
sg27
F3.8053487982708494
ssS'BHATNAGAR SANJAY'
p256
(dp257
g3
F523.0
sg4
F0.0
sg5
F0.0
sg6
I00
sg7
F0.0
sg8
F0.0
sg9
F0.0
sg10
F15456290.0
sg11
F463.0
sg12
F0.0
sg13
F29.0
sg14
F137864.0
sg15
F0.0
sg16
F137864.0
sg17
F0.0
sg18
F0.0
sg19
F1.0
sg20
F0.034482758620689655
sg21
F-2604490.0
sg22
F0.0
sg23
F0.0
sg24
F15456290.0
sg25
F0.8852772466539197
sg26
F2604490.0
sg27
F0.0
ssS'CARTER REBECCA C'
p258
(dp259
g3
F312.0
sg4
F0.0
sg5
F0.0
sg6
I00
sg7
F75000.0
sg8
F29.0
sg9
F-159792.0
sg10
F-307301.0
sg11
F196.0
sg12
F0.0
sg13
F15.0
sg14
F540.0
sg15
F0.09294871794871795
sg16
F0.0
sg17
F300000.0
sg18
F0.0
sg19
F7.0
sg20
F0.4666666666666667
sg21
F307301.0
sg22
F261809.0
sg23
F0.6281972623163308
sg24
F477557.0
sg25
F0.6282051282051282
sg26
F0.0
sg27
F1.14587351848103
ssS'BUCHANAN HAROLD G'
p260
(dp261
g3
F1088.0
sg4
F0.0
sg5
F600.0
sg6
I00
sg7
F304805.0
sg8
F0.0
sg9
F0.0
sg10
F0.0
sg11
F23.0
sg12
F0.0
sg13
F125.0
sg14
F1215.0
sg15
F0.0
sg16
F0.0
sg17
F500000.0
sg18
F1014505.0
sg19
F0.0
sg20
F0.0
sg21
F189041.0
sg22
F248017.0
sg23
F0.47409677453000415
sg24
F1054637.0
sg25
F0.021139705882352942
sg26
F825464.0
sg27
F2.015990839337626
ssS'YEAP SOON'
p262
(dp263
g3
F0.0
sg4
F0.0
sg5
F55097.0
sg6
I00
sg7
F0.0
sg8
F0.0
sg9
F0.0
sg10
F0.0
sg11
F0.0
sg12
F0.0
sg13
F0.0
sg14
F0.0
sg15
F0.0
sg16
F0.0
sg17
F0.0
sg18
F192758.0
sg19
F0.0
sg20
F0.0
sg21
F0.0
sg22
F0.0
sg23
F0.0
sg24
F55097.0
sg25
F0.0
sg26
F192758.0
sg27
F0.0
ssS'MURRAY JULIA H'
p264
(dp265
g3
F2192.0
sg4
F0.0
sg5
F57580.0
sg6
I00
sg7
F125000.0
sg8
F11.0
sg9
F0.0
sg10
F0.0
sg11
F395.0
sg12
F0.0
sg13
F45.0
sg14
F330.0
sg15
F0.005018248175182482
sg16
F0.0
sg17
F400000.0
sg18
F597461.0
sg19
F2.0
sg20
F0.044444444444444446
sg21
F196983.0
sg22
F229284.0
sg23
F0.4924931728133919
sg24
F812194.0
sg25
F0.1802007299270073
sg26
F400478.0
sg27
F1.744561330053558
ssS'GARLAND C KEVIN'
p266
(dp267
g3
F209.0
sg4
F0.0
sg5
F48405.0
sg6
I00
sg7
F375304.0
sg8
F10.0
sg9
F0.0
sg10
F0.0
sg11
F178.0
sg12
F0.0
sg13
F44.0
sg14
F60814.0
sg15
F0.04784688995215311
sg16
F0.0
sg17
F850000.0
sg18
F896153.0
sg19
F27.0
sg20
F0.6136363636363636
sg21
F259907.0
sg22
F231946.0
sg23
F0.5426216541789208
sg24
F1566469.0
sg25
F0.8516746411483254
sg26
F636246.0
sg27
F3.6646460814155017
ssS'DODSON KEITH'
p268
(dp269
g3
F176.0
sg4
F0.0
sg5
F28164.0
sg6
I00
sg7
F0.0
sg8
F10.0
sg9
F0.0
sg10
F0.0
sg11
F114.0
sg12
F0.0
sg13
F14.0
sg14
F774.0
sg15
F0.056818181818181816
sg16
F0.0
sg17
F70000.0
sg18
F0.0
sg19
F3.0
sg20
F0.21428571428571427
sg21
F0.0
sg22
F221003.0
sg23
F0.21879033946883958
sg24
F319941.0
sg25
F0.6477272727272727
sg26
F0.0
sg27
F0.3167377818400655
ssS'YEAGER F SCOTT'
p270
(dp271
g3
F0.0
sg4
F0.0
sg5
F53947.0
sg6
I01
sg7
F0.0
sg8
F0.0
sg9
F0.0
sg10
F0.0
sg11
F0.0
sg12
F0.0
sg13
F0.0
sg14
F147950.0
sg15
F0.0
sg16
F0.0
sg17
F0.0
sg18
F11884758.0
sg19
F0.0
sg20
F0.0
sg21
F3576206.0
sg22
F158403.0
sg23
F0.0
sg24
F360300.0
sg25
F0.0
sg26
F8308552.0
sg27
F0.0
ssS'HIRKO JOSEPH'
p272
(dp273
g3
F0.0
sg4
F10259.0
sg5
F77978.0
sg6
I01
sg7
F0.0
sg8
F0.0
sg9
F0.0
sg10
F0.0
sg11
F0.0
sg12
F0.0
sg13
F0.0
sg14
F2856.0
sg15
F0.0
sg16
F0.0
sg17
F0.0
sg18
F30766064.0
sg19
F0.0
sg20
F0.0
sg21
F0.0
sg22
F0.0
sg23
F0.0
sg24
F91093.0
sg25
F0.0
sg26
F30766064.0
sg27
F0.0
ssS'DIETRICH JANET R'
p274
(dp275
g3
F2572.0
sg4
F0.0
sg5
F3475.0
sg6
I00
sg7
F556416.0
sg8
F305.0
sg9
F0.0
sg10
F0.0
sg11
F1902.0
sg12
F0.0
sg13
F63.0
sg14
F473.0
sg15
F0.11858475894245724
sg16
F0.0
sg17
F600000.0
sg18
F1865087.0
sg19
F14.0
sg20
F0.2222222222222222
sg21
F315068.0
sg22
F250100.0
sg23
F0.4253919277627788
sg24
F1410464.0
sg25
F0.73950233281493
sg26
F1550019.0
sg27
F2.3990403838464616
ssS'DERRICK JR. JAMES V'
p276
(dp277
g3
F2181.0
sg4
F0.0
sg5
F51124.0
sg6
I00
sg7
F484000.0
sg8
F64.0
sg9
F-1284000.0
sg10
F-1787380.0
sg11
F1401.0
sg12
F0.0
sg13
F909.0
sg14
F7482.0
sg15
F0.029344337459880788
sg16
F0.0
sg17
F800000.0
sg18
F8831913.0
sg19
F20.0
sg20
F0.022002200220022004
sg21
F1787380.0
sg22
F492375.0
sg23
F1.4519556935720106
sg24
F550981.0
sg25
F0.6423658872077029
sg26
F8831913.0
sg27
F1.6247778624016247
ssS'FREVERT MARK A'
p278
(dp279
g3
F3275.0
sg4
F6426990.0
sg5
F86987.0
sg6
I00
sg7
F1617011.0
sg8
F242.0
sg9
F-3367011.0
sg10
F0.0
sg11
F2979.0
sg12
F2000000.0
sg13
F21.0
sg14
F7427621.0
sg15
F0.07389312977099237
sg16
F0.0
sg17
F2000000.0
sg18
F14622185.0
sg19
F6.0
sg20
F0.2857142857142857
sg21
F4188667.0
sg22
F1060932.0
sg23
F0.1159250266482655
sg24
F17252530.0
sg25
F0.909618320610687
sg26
F10433518.0
sg27
F1.885134956811558
ssS'PAI LOU L'
p280
(dp281
g3
F0.0
sg4
F0.0
sg5
F32047.0
sg6
I00
sg7
F0.0
sg8
F0.0
sg9
F0.0
sg10
F0.0
sg11
F0.0
sg12
F0.0
sg13
F0.0
sg14
F1829457.0
sg15
F0.0
sg16
F0.0
sg17
F1000000.0
sg18
F23817930.0
sg19
F0.0
sg20
F0.0
sg21
F8453763.0
sg22
F261879.0
sg23
F0.3201656665224854
sg24
F3123383.0
sg25
F0.0
sg26
F15364167.0
sg27
F3.8185574253758414
ssS'BAY FRANKLIN R'
p282
(dp283
g3
F0.0
sg4
F260455.0
sg5
F129142.0
sg6
I00
sg7
F0.0
sg8
F0.0
sg9
F-201641.0
sg10
F-82782.0
sg11
F0.0
sg12
F0.0
sg13
F0.0
sg14
F69.0
sg15
F0.0
sg16
F0.0
sg17
F400000.0
sg18
F63014.0
sg19
F0.0
sg20
F0.0
sg21
F145796.0
sg22
F239671.0
sg23
F0.48326921961686414
sg24
F827696.0
sg25
F0.0
sg26
F0.0
sg27
F1.6689545251615756
ssS'HAYSLETT RODERICK J'
p284
(dp285
g3
F2649.0
sg4
F0.0
sg5
F0.0
sg6
I00
sg7
F0.0
sg8
F35.0
sg9
F0.0
sg10
F0.0
sg11
F571.0
sg12
F0.0
sg13
F1061.0
sg14
F0.0
sg15
F0.01321253303133258
sg16
F0.0
sg17
F0.0
sg18
F346663.0
sg19
F38.0
sg20
F0.03581526861451461
sg21
F346663.0
sg22
F0.0
sg23
F0.0
sg24
F0.0
sg25
F0.21555303888259722
sg26
F0.0
sg27
F0.0
ssS'FUGH JOHN L'
p286
(dp287
g3
F0.0
sg4
F50591.0
sg5
F0.0
sg6
I00
sg7
F0.0
sg8
F0.0
sg9
F0.0
sg10
F0.0
sg11
F0.0
sg12
F0.0
sg13
F0.0
sg14
F0.0
sg15
F0.0
sg16
F0.0
sg17
F0.0
sg18
F176378.0
sg19
F0.0
sg20
F0.0
sg21
F0.0
sg22
F0.0
sg23
F0.0
sg24
F50591.0
sg25
F0.0
sg26
F176378.0
sg27
F0.0
ssS'FALLON JAMES B'
p288
(dp289
g3
F1755.0
sg4
F0.0
sg5
F95924.0
sg6
I00
sg7
F374347.0
sg8
F42.0
sg9
F0.0
sg10
F0.0
sg11
F1604.0
sg12
F0.0
sg13
F75.0
sg14
F401481.0
sg15
F0.023931623931623933
sg16
F0.0
sg17
F2500000.0
sg18
F2332399.0
sg19
F37.0
sg20
F0.49333333333333335
sg21
F1392142.0
sg22
F304588.0
sg23
F0.6800241544579664
sg24
F3676340.0
sg25
F0.913960113960114
sg26
F940257.0
sg27
F8.207808580771403
ssS'KOENIG MARK E'
p290
(dp291
g3
F2374.0
sg4
F0.0
sg5
F127017.0
sg6
I01
sg7
F300000.0
sg8
F53.0
sg9
F0.0
sg10
F0.0
sg11
F2271.0
sg12
F0.0
sg13
F61.0
sg14
F150458.0
sg15
F0.02232518955349621
sg16
F0.0
sg17
F700000.0
sg18
F1920055.0
sg19
F15.0
sg20
F0.2459016393442623
sg21
F1248318.0
sg22
F309946.0
sg23
F0.44096682606567505
sg24
F1587421.0
sg25
F0.9566133108677338
sg26
F671737.0
sg27
F2.2584579249288588
ssS'SAVAGE FRANK'
p292
(dp293
g3
F0.0
sg4
F0.0
sg5
F0.0
sg6
I00
sg7
F0.0
sg8
F0.0
sg9
F-121284.0
sg10
F0.0
sg11
F0.0
sg12
F0.0
sg13
F0.0
sg14
F0.0
sg15
F0.0
sg16
F125034.0
sg17
F0.0
sg18
F0.0
sg19
F0.0
sg20
F0.0
sg21
F0.0
sg22
F0.0
sg23
F0.0
sg24
F3750.0
sg25
F0.0
sg26
F0.0
sg27
F0.0
ssS'IZZO LAWRENCE L'
p294
(dp295
g3
F496.0
sg4
F0.0
sg5
F28093.0
sg6
I00
sg7
F312500.0
sg8
F28.0
sg9
F0.0
sg10
F0.0
sg11
F437.0
sg12
F0.0
sg13
F19.0
sg14
F1553729.0
sg15
F0.056451612903225805
sg16
F0.0
sg17
F0.0
sg18
F5819980.0
sg19
F5.0
sg20
F0.2631578947368421
sg21
F3654808.0
sg22
F85274.0
sg23
F0.0
sg24
F1979596.0
sg25
F0.8810483870967742
sg26
F2165172.0
sg27
F0.0
ssS'TILNEY ELIZABETH A'
p296
(dp297
g3
F460.0
sg4
F0.0
sg5
F0.0
sg6
I00
sg7
F275000.0
sg8
F10.0
sg9
F-575000.0
sg10
F0.0
sg11
F379.0
sg12
F0.0
sg13
F19.0
sg14
F152055.0
sg15
F0.021739130434782608
sg16
F0.0
sg17
F300000.0
sg18
F1168042.0
sg19
F11.0
sg20
F0.5789473684210527
sg21
F576792.0
sg22
F247338.0
sg23
F0.7511398547295521
sg24
F399393.0
sg25
F0.8239130434782609
sg26
F591250.0
sg27
F1.2129151201998885
ssS'MARTIN AMANDA K'
p298
(dp299
g3
F1522.0
sg4
F85430.0
sg5
F8211.0
sg6
I00
sg7
F5145434.0
sg8
F8.0
sg9
F0.0
sg10
F0.0
sg11
F477.0
sg12
F0.0
sg13
F230.0
sg14
F2818454.0
sg15
F0.005256241787122208
sg16
F0.0
sg17
F0.0
sg18
F2070306.0
sg19
F0.0
sg20
F0.0
sg21
F0.0
sg22
F349487.0
sg23
F0.0
sg24
F8407016.0
sg25
F0.31340341655716164
sg26
F2070306.0
sg27
F0.0
ssS'BUY RICHARD B'
p300
(dp301
g3
F3523.0
sg4
F649584.0
sg5
F0.0
sg6
I00
sg7
F769862.0
sg8
F156.0
sg9
F-694862.0
sg10
F0.0
sg11
F2333.0
sg12
F0.0
sg13
F1053.0
sg14
F400572.0
sg15
F0.04428044280442804
sg16
F0.0
sg17
F900000.0
sg18
F3444470.0
sg19
F71.0
sg20
F0.06742640075973409
sg21
F901657.0
sg22
F330546.0
sg23
F0.38205171961479
sg24
F2355702.0
sg25
F0.6622196991200682
sg26
F2542813.0
sg27
F2.722767784211577
ssS'GRAMM WENDY L'
p302
(dp303
g3
F0.0
sg4
F0.0
sg5
F0.0
sg6
I00
sg7
F0.0
sg8
F0.0
sg9
F0.0
sg10
F0.0
sg11
F0.0
sg12
F0.0
sg13
F0.0
sg14
F0.0
sg15
F0.0
sg16
F119292.0
sg17
F0.0
sg18
F0.0
sg19
F0.0
sg20
F0.0
sg21
F0.0
sg22
F0.0
sg23
F0.0
sg24
F119292.0
sg25
F0.0
sg26
F0.0
sg27
F0.0
ssS'CAUSEY RICHARD A'
p304
(dp305
g3
F1892.0
sg4
F0.0
sg5
F30674.0
sg6
I01
sg7
F350000.0
sg8
F58.0
sg9
F-235000.0
sg10
F0.0
sg11
F1585.0
sg12
F0.0
sg13
F49.0
sg14
F307895.0
sg15
F0.0306553911205074
sg16
F0.0
sg17
F1000000.0
sg18
F2502063.0
sg19
F12.0
sg20
F0.24489795918367346
sg21
F2502063.0
sg22
F415189.0
sg23
F0.5351147660638778
sg24
F1868758.0
sg25
F0.837737843551797
sg26
F0.0
sg27
F2.4085416521150607
ssS'TAYLOR MITCHELL S'
p306
(dp307
g3
F533.0
sg4
F227449.0
sg5
F0.0
sg6
I00
sg7
F0.0
sg8
F0.0
sg9
F0.0
sg10
F0.0
sg11
F300.0
sg12
F0.0
sg13
F29.0
sg14
F0.0
sg15
F0.0
sg16
F0.0
sg17
F600000.0
sg18
F3745048.0
sg19
F0.0
sg20
F0.0
sg21
F563798.0
sg22
F265214.0
sg23
F0.5491171568910085
sg24
F1092663.0
sg25
F0.5628517823639775
sg26
F3181250.0
sg27
F2.2623240100447184
ssS'DONAHUE JR JEFFREY M'
p308
(dp309
g3
F865.0
sg4
F0.0
sg5
F96268.0
sg6
I00
sg7
F0.0
sg8
F188.0
sg9
F-300000.0
sg10
F0.0
sg11
F772.0
sg12
F0.0
sg13
F22.0
sg14
F891.0
sg15
F0.21734104046242775
sg16
F0.0
sg17
F800000.0
sg18
F1080988.0
sg19
F11.0
sg20
F0.5
sg21
F315068.0
sg22
F278601.0
sg23
F0.9134922809902256
sg24
F875760.0
sg25
F0.892485549132948
sg26
F765920.0
sg27
F2.8714900520816506
ssS'GLISAN JR BEN F'
p310
(dp311
g3
F873.0
sg4
F0.0
sg5
F125978.0
sg6
I01
sg7
F71023.0
sg8
F52.0
sg9
F0.0
sg10
F0.0
sg11
F874.0
sg12
F0.0
sg13
F16.0
sg14
F200308.0
sg15
F0.05956471935853379
sg16
F0.0
sg17
F600000.0
sg18
F778546.0
sg19
F6.0
sg20
F0.375
sg21
F393818.0
sg22
F274975.0
sg23
F0.4715928204709012
sg24
F1272284.0
sg25
F1.0011454753722795
sg26
F384728.0
sg27
F2.1820165469588146
ss.